target datalayout = "e-m:e-p270:32:32-p271:32:32-p272:64:64-i64:64-i128:128-f80:128-n8:16:32:64-S128"
target triple = "x86_64-pc-linux-gnu"

%"class.Imath_3_2::Box" = type { %"class.Imath_3_2::Vec2", %"class.Imath_3_2::Vec2" }
%"class.Imath_3_2::Vec2" = type { i32, i32 }
%"class.Imf_3_4::TileDescription" = type { i32, i32, i32, i32 }

; Function Attrs: inlinehint mustprogress nounwind uwtable
define linkonce_odr hidden noundef nonnull align 4 dereferenceable(8) ptr @_ZN9Imath_3_24Vec2IiEaSERKS1_(ptr noundef nonnull align 4 dereferenceable(8) %0, ptr noundef nonnull align 4 dereferenceable(8) %1) #6 comdat align 2 {
  %3 = alloca ptr, align 8
  %4 = alloca ptr, align 8
  store ptr %0, ptr %3, align 8, !tbaa !17
  store ptr %1, ptr %4, align 8, !tbaa !17
  %5 = load ptr, ptr %3, align 8
  %6 = load ptr, ptr %4, align 8, !tbaa !17
  %7 = getelementptr inbounds nuw %"class.Imath_3_2::Vec2", ptr %6, i32 0, i32 0
  %8 = load i32, ptr %7, align 4, !tbaa !19
  %9 = getelementptr inbounds nuw %"class.Imath_3_2::Vec2", ptr %5, i32 0, i32 0
  store i32 %8, ptr %9, align 4, !tbaa !19
  %10 = load ptr, ptr %4, align 8, !tbaa !17
  %11 = getelementptr inbounds nuw %"class.Imath_3_2::Vec2", ptr %10, i32 0, i32 1
  %12 = load i32, ptr %11, align 4, !tbaa !21
  %13 = getelementptr inbounds nuw %"class.Imath_3_2::Vec2", ptr %5, i32 0, i32 1
  store i32 %12, ptr %13, align 4, !tbaa !21
  ret ptr %5
}

; Function Attrs: inlinehint mustprogress nounwind uwtable
define linkonce_odr hidden void @_ZN9Imath_3_24Vec2IiEC2Ev(ptr noundef nonnull align 4 dereferenceable(8) %0) unnamed_addr #6 comdat align 2 {
  %2 = alloca ptr, align 8
  store ptr %0, ptr %2, align 8, !tbaa !17
  ret void
}

; Function Attrs: inlinehint mustprogress nounwind uwtable
define linkonce_odr hidden void @_ZN9Imath_3_23BoxINS_4Vec2IiEEEC2ERKS2_S5_(ptr noundef nonnull align 4 dereferenceable(16) %0, ptr noundef nonnull align 4 dereferenceable(8) %1, ptr noundef nonnull align 4 dereferenceable(8) %2) unnamed_addr #6 comdat align 2 {
  %4 = alloca ptr, align 8
  %5 = alloca ptr, align 8
  %6 = alloca ptr, align 8
  store ptr %0, ptr %4, align 8, !tbaa !22
  store ptr %1, ptr %5, align 8, !tbaa !17
  store ptr %2, ptr %6, align 8, !tbaa !17
  %7 = load ptr, ptr %4, align 8
  %8 = getelementptr inbounds nuw %"class.Imath_3_2::Box", ptr %7, i32 0, i32 0
  call void @_ZN9Imath_3_24Vec2IiEC2Ev(ptr noundef nonnull align 4 dereferenceable(8) %8) #3
  %9 = getelementptr inbounds nuw %"class.Imath_3_2::Box", ptr %7, i32 0, i32 1
  call void @_ZN9Imath_3_24Vec2IiEC2Ev(ptr noundef nonnull align 4 dereferenceable(8) %9) #3
  %10 = load ptr, ptr %5, align 8, !tbaa !17
  %11 = getelementptr inbounds nuw %"class.Imath_3_2::Box", ptr %7, i32 0, i32 0
  %12 = call noundef nonnull align 4 dereferenceable(8) ptr @_ZN9Imath_3_24Vec2IiEaSERKS1_(ptr noundef nonnull align 4 dereferenceable(8) %11, ptr noundef nonnull align 4 dereferenceable(8) %10) #3
  %13 = load ptr, ptr %6, align 8, !tbaa !17
  %14 = getelementptr inbounds nuw %"class.Imath_3_2::Box", ptr %7, i32 0, i32 1
  %15 = call noundef nonnull align 4 dereferenceable(8) ptr @_ZN9Imath_3_24Vec2IiEaSERKS1_(ptr noundef nonnull align 4 dereferenceable(8) %14, ptr noundef nonnull align 4 dereferenceable(8) %13) #3
  ret void
}

; Function Attrs: inlinehint mustprogress nounwind uwtable
define linkonce_odr noundef nonnull align 8 dereferenceable(8) ptr @_ZSt3minIlERKT_S2_S2_(ptr noundef nonnull align 8 dereferenceable(8) %0, ptr noundef nonnull align 8 dereferenceable(8) %1) #6 comdat {
  %3 = alloca ptr, align 8
  %4 = alloca ptr, align 8
  %5 = alloca ptr, align 8
  store ptr %0, ptr %4, align 8, !tbaa !28
  store ptr %1, ptr %5, align 8, !tbaa !28
  %6 = load ptr, ptr %5, align 8, !tbaa !28
  %7 = load i64, ptr %6, align 8, !tbaa !26
  %8 = load ptr, ptr %4, align 8, !tbaa !28
  %9 = load i64, ptr %8, align 8, !tbaa !26
  %10 = icmp slt i64 %7, %9
  br i1 %10, label %11, label %13

11:                                               ; preds = %2
  %12 = load ptr, ptr %5, align 8, !tbaa !28
  store ptr %12, ptr %3, align 8
  br label %15

13:                                               ; preds = %2
  %14 = load ptr, ptr %4, align 8, !tbaa !28
  store ptr %14, ptr %3, align 8
  br label %15

15:                                               ; preds = %13, %11
  %16 = load ptr, ptr %3, align 8
  ret ptr %16
}

; Function Attrs: inlinehint mustprogress nounwind uwtable
define linkonce_odr hidden void @_ZN9Imath_3_24Vec2IiEC2ERKS1_(ptr noundef nonnull align 4 dereferenceable(8) %0, ptr noundef nonnull align 4 dereferenceable(8) %1) unnamed_addr #6 comdat align 2 {
  %3 = alloca ptr, align 8
  %4 = alloca ptr, align 8
  store ptr %0, ptr %3, align 8, !tbaa !17
  store ptr %1, ptr %4, align 8, !tbaa !17
  %5 = load ptr, ptr %3, align 8
  %6 = getelementptr inbounds nuw %"class.Imath_3_2::Vec2", ptr %5, i32 0, i32 0
  %7 = load ptr, ptr %4, align 8, !tbaa !17
  %8 = getelementptr inbounds nuw %"class.Imath_3_2::Vec2", ptr %7, i32 0, i32 0
  %9 = load i32, ptr %8, align 4, !tbaa !19
  store i32 %9, ptr %6, align 4, !tbaa !19
  %10 = getelementptr inbounds nuw %"class.Imath_3_2::Vec2", ptr %5, i32 0, i32 1
  %11 = load ptr, ptr %4, align 8, !tbaa !17
  %12 = getelementptr inbounds nuw %"class.Imath_3_2::Vec2", ptr %11, i32 0, i32 1
  %13 = load i32, ptr %12, align 4, !tbaa !21
  store i32 %13, ptr %10, align 4, !tbaa !21
  ret void
}

; Function Attrs: inlinehint mustprogress nounwind uwtable
define linkonce_odr hidden noundef nonnull align 4 dereferenceable(4) ptr @_ZN9Imath_3_24Vec2IiEixEi(ptr noundef nonnull align 4 dereferenceable(8) %0, i32 noundef %1) #6 comdat align 2 {
  %3 = alloca ptr, align 8
  %4 = alloca i32, align 4
  store ptr %0, ptr %3, align 8, !tbaa !17
  store i32 %1, ptr %4, align 4, !tbaa !3
  %5 = load ptr, ptr %3, align 8
  %6 = load i32, ptr %4, align 4, !tbaa !3
  %7 = sext i32 %6 to i64
  %8 = getelementptr inbounds i32, ptr %5, i64 %7
  ret ptr %8
}

; Function Attrs: inlinehint mustprogress nounwind uwtable
define linkonce_odr hidden void @_ZN9Imath_3_24Vec2IiEC2Eii(ptr noundef nonnull align 4 dereferenceable(8) %0, i32 noundef %1, i32 noundef %2) unnamed_addr #6 comdat align 2 {
  %4 = alloca ptr, align 8
  %5 = alloca i32, align 4
  %6 = alloca i32, align 4
  store ptr %0, ptr %4, align 8, !tbaa !17
  store i32 %1, ptr %5, align 4, !tbaa !3
  store i32 %2, ptr %6, align 4, !tbaa !3
  %7 = load ptr, ptr %4, align 8
  %8 = getelementptr inbounds nuw %"class.Imath_3_2::Vec2", ptr %7, i32 0, i32 0
  %9 = load i32, ptr %5, align 4, !tbaa !3
  store i32 %9, ptr %8, align 4, !tbaa !19
  %10 = getelementptr inbounds nuw %"class.Imath_3_2::Vec2", ptr %7, i32 0, i32 1
  %11 = load i32, ptr %6, align 4, !tbaa !3
  store i32 %11, ptr %10, align 4, !tbaa !21
  ret void
}

; Function Attrs: mustprogress uwtable
define void @_ZN7Imf_3_417dataWindowForTileERKNS_15TileDescriptionEiiiiiiii(ptr dead_on_unwind noalias writable sret(%"class.Imath_3_2::Box") align 4 %0, ptr noundef nonnull align 4 dereferenceable(16) %1, i32 noundef %2, i32 noundef %3, i32 noundef %4, i32 noundef %5, i32 noundef %6, i32 noundef %7, i32 noundef %8, i32 noundef %9) #4 {
  %11 = alloca ptr, align 8
  %12 = alloca ptr, align 8
  %13 = alloca i32, align 4
  %14 = alloca i32, align 4
  %15 = alloca i32, align 4
  %16 = alloca i32, align 4
  %17 = alloca i32, align 4
  %18 = alloca i32, align 4
  %19 = alloca i32, align 4
  %20 = alloca i32, align 4
  %21 = alloca %"class.Imath_3_2::Vec2", align 4
  %22 = alloca i64, align 8
  %23 = alloca i64, align 8
  %24 = alloca %"class.Imath_3_2::Vec2", align 4
  %25 = alloca %"class.Imath_3_2::Box", align 4
  %26 = alloca %"class.Imath_3_2::Vec2", align 4
  %27 = alloca i64, align 8
  %28 = alloca i64, align 8
  store ptr %0, ptr %11, align 8
  store ptr %1, ptr %12, align 8, !tbaa !12
  store i32 %2, ptr %13, align 4, !tbaa !3
  store i32 %3, ptr %14, align 4, !tbaa !3
  store i32 %4, ptr %15, align 4, !tbaa !3
  store i32 %5, ptr %16, align 4, !tbaa !3
  store i32 %6, ptr %17, align 4, !tbaa !3
  store i32 %7, ptr %18, align 4, !tbaa !3
  store i32 %8, ptr %19, align 4, !tbaa !3
  store i32 %9, ptr %20, align 4, !tbaa !3
  call void @llvm.lifetime.start.p0(i64 8, ptr %21) #3
  %29 = load i32, ptr %13, align 4, !tbaa !3
  %30 = load i32, ptr %17, align 4, !tbaa !3
  %31 = load ptr, ptr %12, align 8, !tbaa !12
  %32 = getelementptr inbounds nuw %"class.Imf_3_4::TileDescription", ptr %31, i32 0, i32 0
  %33 = load i32, ptr %32, align 4, !tbaa !24
  %34 = mul i32 %30, %33
  %35 = add i32 %29, %34
  %36 = load i32, ptr %15, align 4, !tbaa !3
  %37 = load i32, ptr %18, align 4, !tbaa !3
  %38 = load ptr, ptr %12, align 8, !tbaa !12
  %39 = getelementptr inbounds nuw %"class.Imf_3_4::TileDescription", ptr %38, i32 0, i32 1
  %40 = load i32, ptr %39, align 4, !tbaa !25
  %41 = mul i32 %37, %40
  %42 = add i32 %36, %41
  call void @_ZN9Imath_3_24Vec2IiEC2Eii(ptr noundef nonnull align 4 dereferenceable(8) %21, i32 noundef %35, i32 noundef %42) #3
  call void @llvm.lifetime.start.p0(i64 8, ptr %22) #3
  %43 = call noundef nonnull align 4 dereferenceable(4) ptr @_ZN9Imath_3_24Vec2IiEixEi(ptr noundef nonnull align 4 dereferenceable(8) %21, i32 noundef 0) #3
  %44 = load i32, ptr %43, align 4, !tbaa !3
  %45 = sext i32 %44 to i64
  %46 = load ptr, ptr %12, align 8, !tbaa !12
  %47 = getelementptr inbounds nuw %"class.Imf_3_4::TileDescription", ptr %46, i32 0, i32 0
  %48 = load i32, ptr %47, align 4, !tbaa !24
  %49 = zext i32 %48 to i64
  %50 = add nsw i64 %45, %49
  %51 = sub nsw i64 %50, 1
  store i64 %51, ptr %22, align 8, !tbaa !26
  call void @llvm.lifetime.start.p0(i64 8, ptr %23) #3
  %52 = call noundef nonnull align 4 dereferenceable(4) ptr @_ZN9Imath_3_24Vec2IiEixEi(ptr noundef nonnull align 4 dereferenceable(8) %21, i32 noundef 1) #3
  %53 = load i32, ptr %52, align 4, !tbaa !3
  %54 = sext i32 %53 to i64
  %55 = load ptr, ptr %12, align 8, !tbaa !12
  %56 = getelementptr inbounds nuw %"class.Imf_3_4::TileDescription", ptr %55, i32 0, i32 1
  %57 = load i32, ptr %56, align 4, !tbaa !25
  %58 = zext i32 %57 to i64
  %59 = add nsw i64 %54, %58
  %60 = sub nsw i64 %59, 1
  store i64 %60, ptr %23, align 8, !tbaa !26
  call void @llvm.lifetime.start.p0(i64 8, ptr %24) #3
  call void @llvm.lifetime.start.p0(i64 16, ptr %25) #3
  %61 = load ptr, ptr %12, align 8, !tbaa !12
  %62 = load i32, ptr %13, align 4, !tbaa !3
  %63 = load i32, ptr %14, align 4, !tbaa !3
  %64 = load i32, ptr %15, align 4, !tbaa !3
  %65 = load i32, ptr %16, align 4, !tbaa !3
  %66 = load i32, ptr %19, align 4, !tbaa !3
  %67 = load i32, ptr %20, align 4, !tbaa !3
  call void @_ZN7Imf_3_418dataWindowForLevelERKNS_15TileDescriptionEiiiiii(ptr dead_on_unwind writable sret(%"class.Imath_3_2::Box") align 4 %25, ptr noundef nonnull align 4 dereferenceable(16) %61, i32 noundef %62, i32 noundef %63, i32 noundef %64, i32 noundef %65, i32 noundef %66, i32 noundef %67)
  %68 = getelementptr inbounds nuw %"class.Imath_3_2::Box", ptr %25, i32 0, i32 1
  call void @_ZN9Imath_3_24Vec2IiEC2ERKS1_(ptr noundef nonnull align 4 dereferenceable(8) %24, ptr noundef nonnull align 4 dereferenceable(8) %68) #3
  call void @llvm.lifetime.end.p0(i64 16, ptr %25) #3
  call void @llvm.lifetime.start.p0(i64 8, ptr %26) #3
  call void @llvm.lifetime.start.p0(i64 8, ptr %27) #3
  %69 = call noundef nonnull align 4 dereferenceable(4) ptr @_ZN9Imath_3_24Vec2IiEixEi(ptr noundef nonnull align 4 dereferenceable(8) %24, i32 noundef 0) #3
  %70 = load i32, ptr %69, align 4, !tbaa !3
  %71 = sext i32 %70 to i64
  store i64 %71, ptr %27, align 8, !tbaa !26
  %72 = call noundef nonnull align 8 dereferenceable(8) ptr @_ZSt3minIlERKT_S2_S2_(ptr noundef nonnull align 8 dereferenceable(8) %22, ptr noundef nonnull align 8 dereferenceable(8) %27)
  %73 = load i64, ptr %72, align 8, !tbaa !26
  %74 = trunc i64 %73 to i32
  call void @llvm.lifetime.start.p0(i64 8, ptr %28) #3
  %75 = call noundef nonnull align 4 dereferenceable(4) ptr @_ZN9Imath_3_24Vec2IiEixEi(ptr noundef nonnull align 4 dereferenceable(8) %24, i32 noundef 1) #3
  %76 = load i32, ptr %75, align 4, !tbaa !3
  %77 = sext i32 %76 to i64
  store i64 %77, ptr %28, align 8, !tbaa !26
  %78 = call noundef nonnull align 8 dereferenceable(8) ptr @_ZSt3minIlERKT_S2_S2_(ptr noundef nonnull align 8 dereferenceable(8) %23, ptr noundef nonnull align 8 dereferenceable(8) %28)
  %79 = load i64, ptr %78, align 8, !tbaa !26
  %80 = trunc i64 %79 to i32
  call void @_ZN9Imath_3_24Vec2IiEC2Eii(ptr noundef nonnull align 4 dereferenceable(8) %26, i32 noundef %74, i32 noundef %80) #3
  call void @llvm.lifetime.end.p0(i64 8, ptr %28) #3
  call void @llvm.lifetime.end.p0(i64 8, ptr %27) #3
  call void @_ZN9Imath_3_23BoxINS_4Vec2IiEEEC2ERKS2_S5_(ptr noundef nonnull align 4 dereferenceable(16) %0, ptr noundef nonnull align 4 dereferenceable(8) %21, ptr noundef nonnull align 4 dereferenceable(8) %26) #3
  call void @llvm.lifetime.end.p0(i64 8, ptr %26) #3
  call void @llvm.lifetime.end.p0(i64 8, ptr %24) #3
  call void @llvm.lifetime.end.p0(i64 8, ptr %23) #3
  call void @llvm.lifetime.end.p0(i64 8, ptr %22) #3
  call void @llvm.lifetime.end.p0(i64 8, ptr %21) #3
  ret void
}