; Function Attrs: mustprogress uwtable
define void @_ZN7Imf_3_417dataWindowForTileERKNS_15TileDescriptionEiiiiiiii(ptr dead_on_unwind noalias writable writeonly sret(%"class.Imath_3_2::Box") align 4 captures(none) initializes((0, 16)) %0, ptr noundef nonnull readonly align 4 captures(none) dereferenceable(16) %1, i32 noundef %2, i32 noundef %3, i32 noundef %4, i32 noundef %5, i32 noundef %6, i32 noundef %7, i32 noundef %8, i32 noundef %9) local_unnamed_addr #3 {
  %11 = alloca %"class.Imath_3_2::Box", align 4
  %12 = load i32, ptr %1, align 4, !tbaa !13
  %13 = mul i32 %12, %6
  %14 = add i32 %13, %2
  %15 = getelementptr inbounds nuw i8, ptr %1, i64 4
  %16 = load i32, ptr %15, align 4, !tbaa !14
  %17 = mul i32 %16, %7
  %18 = add i32 %17, %4
  %19 = sext i32 %14 to i64
  %20 = zext i32 %12 to i64
  %21 = add nsw i64 %20, -1
  %22 = add nsw i64 %21, %19
  %23 = sext i32 %18 to i64
  %24 = zext i32 %16 to i64
  %25 = add nsw i64 %24, -1
  %26 = add nsw i64 %25, %23
  call void @llvm.lifetime.start.p0(i64 16, ptr nonnull %11) #13
  call void @_ZN7Imf_3_418dataWindowForLevelERKNS_15TileDescriptionEiiiiii(ptr dead_on_unwind nonnull writable sret(%"class.Imath_3_2::Box") align 4 %11, ptr noundef nonnull align 4 dereferenceable(16) %1, i32 noundef %2, i32 noundef %3, i32 noundef %4, i32 noundef %5, i32 noundef %8, i32 noundef %9)
  %27 = getelementptr inbounds nuw i8, ptr %11, i64 8
  %28 = load i32, ptr %27, align 4, !tbaa !10
  %29 = getelementptr inbounds nuw i8, ptr %11, i64 12
  %30 = load i32, ptr %29, align 4, !tbaa !12
  call void @llvm.lifetime.end.p0(i64 16, ptr nonnull %11) #13
  %31 = sext i32 %28 to i64
  %.sroa.speculated17 = tail call i64 @llvm.smin.i64(i64 %22, i64 %31)
  %32 = trunc i64 %.sroa.speculated17 to i32
  %33 = sext i32 %30 to i64
  %.sroa.speculated = tail call i64 @llvm.smin.i64(i64 %26, i64 %33)
  %34 = trunc i64 %.sroa.speculated to i32
  %35 = getelementptr inbounds nuw i8, ptr %0, i64 8
  store i32 %14, ptr %0, align 4, !tbaa !10
  %36 = getelementptr inbounds nuw i8, ptr %0, i64 4
  store i32 %18, ptr %36, align 4, !tbaa !12
  store i32 %32, ptr %35, align 4, !tbaa !10
  %37 = getelementptr inbounds nuw i8, ptr %0, i64 12
  store i32 %34, ptr %37, align 4, !tbaa !12
  ret void
}